target datalayout = "e-m:e-p270:32:32-p271:32:32-p272:64:64-i64:64-i128:128-f80:128-n8:16:32:64-S128"
target triple = "x86_64-pc-linux-gnu"

%struct.ggml_tensor = type { i32, ptr, [4 x i64], [4 x i64], i32, [16 x i32], i32, [10 x ptr], ptr, i64, ptr, [64 x i8], ptr, [8 x i8] }

@.str.12 = private unnamed_addr constant [113 x i8] c"generated/home/dtcxzyw/WorkSpace/Projects/compilers/llvm-opt-benchmark/bench/llama.cpp/llama.cpp/ggml/src/ggml.c\00", align 1
@.str.13 = private unnamed_addr constant [23 x i8] c"GGML_ASSERT(%s) failed\00", align 1
@.str.141 = private unnamed_addr constant [18 x i8] c"ggml_is_scalar(a)\00", align 1
@.str.142 = private unnamed_addr constant [26 x i8] c"ggml_are_same_shape(b, c)\00", align 1

; Function Attrs: nounwind uwtable
define ptr @ggml_new_tensor(ptr noundef %0, i32 noundef %1, i32 noundef %2, ptr noundef %3) #5 {
  %5 = alloca ptr, align 8
  %6 = alloca i32, align 4
  %7 = alloca i32, align 4
  %8 = alloca ptr, align 8
  store ptr %0, ptr %5, align 8, !tbaa !48
  store i32 %1, ptr %6, align 4, !tbaa !8
  store i32 %2, ptr %7, align 4, !tbaa !8
  store ptr %3, ptr %8, align 8, !tbaa !88
  %9 = load ptr, ptr %5, align 8, !tbaa !48
  %10 = load i32, ptr %6, align 4, !tbaa !8
  %11 = load i32, ptr %7, align 4, !tbaa !8
  %12 = load ptr, ptr %8, align 8, !tbaa !88
  %13 = call ptr @ggml_new_tensor_impl(ptr noundef %9, i32 noundef %10, i32 noundef %11, ptr noundef %12, ptr noundef null, i64 noundef 0)
  ret ptr %13
}

; Function Attrs: nounwind uwtable
define ptr @ggml_dup_tensor(ptr noundef %0, ptr noundef %1) #5 {
  %3 = alloca ptr, align 8
  %4 = alloca ptr, align 8
  store ptr %0, ptr %3, align 8, !tbaa !48
  store ptr %1, ptr %4, align 8, !tbaa !54
  %5 = load ptr, ptr %3, align 8, !tbaa !48
  %6 = load ptr, ptr %4, align 8, !tbaa !54
  %7 = getelementptr inbounds nuw %struct.ggml_tensor, ptr %6, i32 0, i32 0
  %8 = load i32, ptr %7, align 8, !tbaa !56
  %9 = load ptr, ptr %4, align 8, !tbaa !54
  %10 = getelementptr inbounds nuw %struct.ggml_tensor, ptr %9, i32 0, i32 2
  %11 = getelementptr inbounds [4 x i64], ptr %10, i64 0, i64 0
  %12 = call ptr @ggml_new_tensor(ptr noundef %5, i32 noundef %8, i32 noundef 4, ptr noundef %11)
  ret ptr %12
}

; Function Attrs: nounwind uwtable
define zeroext i1 @ggml_are_same_shape(ptr noundef %0, ptr noundef %1) #5 {
  %3 = alloca ptr, align 8
  %4 = alloca ptr, align 8
  store ptr %0, ptr %3, align 8, !tbaa !54
  store ptr %1, ptr %4, align 8, !tbaa !54
  %5 = load ptr, ptr %3, align 8, !tbaa !54
  %6 = getelementptr inbounds nuw %struct.ggml_tensor, ptr %5, i32 0, i32 2
  %7 = getelementptr inbounds [4 x i64], ptr %6, i64 0, i64 0
  %8 = load i64, ptr %7, align 8, !tbaa !19
  %9 = load ptr, ptr %4, align 8, !tbaa !54
  %10 = getelementptr inbounds nuw %struct.ggml_tensor, ptr %9, i32 0, i32 2
  %11 = getelementptr inbounds [4 x i64], ptr %10, i64 0, i64 0
  %12 = load i64, ptr %11, align 8, !tbaa !19
  %13 = icmp eq i64 %8, %12
  br i1 %13, label %14, label %44

14:                                               ; preds = %2
  %15 = load ptr, ptr %3, align 8, !tbaa !54
  %16 = getelementptr inbounds nuw %struct.ggml_tensor, ptr %15, i32 0, i32 2
  %17 = getelementptr inbounds [4 x i64], ptr %16, i64 0, i64 1
  %18 = load i64, ptr %17, align 8, !tbaa !19
  %19 = load ptr, ptr %4, align 8, !tbaa !54
  %20 = getelementptr inbounds nuw %struct.ggml_tensor, ptr %19, i32 0, i32 2
  %21 = getelementptr inbounds [4 x i64], ptr %20, i64 0, i64 1
  %22 = load i64, ptr %21, align 8, !tbaa !19
  %23 = icmp eq i64 %18, %22
  br i1 %23, label %24, label %44

24:                                               ; preds = %14
  %25 = load ptr, ptr %3, align 8, !tbaa !54
  %26 = getelementptr inbounds nuw %struct.ggml_tensor, ptr %25, i32 0, i32 2
  %27 = getelementptr inbounds [4 x i64], ptr %26, i64 0, i64 2
  %28 = load i64, ptr %27, align 8, !tbaa !19
  %29 = load ptr, ptr %4, align 8, !tbaa !54
  %30 = getelementptr inbounds nuw %struct.ggml_tensor, ptr %29, i32 0, i32 2
  %31 = getelementptr inbounds [4 x i64], ptr %30, i64 0, i64 2
  %32 = load i64, ptr %31, align 8, !tbaa !19
  %33 = icmp eq i64 %28, %32
  br i1 %33, label %34, label %44

34:                                               ; preds = %24
  %35 = load ptr, ptr %3, align 8, !tbaa !54
  %36 = getelementptr inbounds nuw %struct.ggml_tensor, ptr %35, i32 0, i32 2
  %37 = getelementptr inbounds [4 x i64], ptr %36, i64 0, i64 3
  %38 = load i64, ptr %37, align 8, !tbaa !19
  %39 = load ptr, ptr %4, align 8, !tbaa !54
  %40 = getelementptr inbounds nuw %struct.ggml_tensor, ptr %39, i32 0, i32 2
  %41 = getelementptr inbounds [4 x i64], ptr %40, i64 0, i64 3
  %42 = load i64, ptr %41, align 8, !tbaa !19
  %43 = icmp eq i64 %38, %42
  br label %44

44:                                               ; preds = %34, %24, %14, %2
  %45 = phi i1 [ false, %24 ], [ false, %14 ], [ false, %2 ], [ %43, %34 ]
  ret i1 %45
}

; Function Attrs: nounwind uwtable
define zeroext i1 @ggml_is_scalar(ptr noundef %0) #5 {
  %2 = alloca ptr, align 8
  store ptr %0, ptr %2, align 8, !tbaa !54
  %3 = load ptr, ptr %2, align 8, !tbaa !54
  %4 = getelementptr inbounds nuw %struct.ggml_tensor, ptr %3, i32 0, i32 2
  %5 = getelementptr inbounds [4 x i64], ptr %4, i64 0, i64 0
  %6 = load i64, ptr %5, align 8, !tbaa !19
  %7 = icmp eq i64 %6, 1
  br i1 %7, label %8, label %26

8:                                                ; preds = %1
  %9 = load ptr, ptr %2, align 8, !tbaa !54
  %10 = getelementptr inbounds nuw %struct.ggml_tensor, ptr %9, i32 0, i32 2
  %11 = getelementptr inbounds [4 x i64], ptr %10, i64 0, i64 1
  %12 = load i64, ptr %11, align 8, !tbaa !19
  %13 = icmp eq i64 %12, 1
  br i1 %13, label %14, label %26

14:                                               ; preds = %8
  %15 = load ptr, ptr %2, align 8, !tbaa !54
  %16 = getelementptr inbounds nuw %struct.ggml_tensor, ptr %15, i32 0, i32 2
  %17 = getelementptr inbounds [4 x i64], ptr %16, i64 0, i64 2
  %18 = load i64, ptr %17, align 8, !tbaa !19
  %19 = icmp eq i64 %18, 1
  br i1 %19, label %20, label %26

20:                                               ; preds = %14
  %21 = load ptr, ptr %2, align 8, !tbaa !54
  %22 = getelementptr inbounds nuw %struct.ggml_tensor, ptr %21, i32 0, i32 2
  %23 = getelementptr inbounds [4 x i64], ptr %22, i64 0, i64 3
  %24 = load i64, ptr %23, align 8, !tbaa !19
  %25 = icmp eq i64 %24, 1
  br label %26

26:                                               ; preds = %20, %14, %8, %1
  %27 = phi i1 [ false, %14 ], [ false, %8 ], [ false, %1 ], [ %25, %20 ]
  ret i1 %27
}

; Function Attrs: nounwind uwtable
define ptr @ggml_cross_entropy_loss_back(ptr noundef %0, ptr noundef %1, ptr noundef %2, ptr noundef %3) #5 {
  %5 = alloca ptr, align 8
  %6 = alloca ptr, align 8
  %7 = alloca ptr, align 8
  %8 = alloca ptr, align 8
  %9 = alloca ptr, align 8
  store ptr %0, ptr %5, align 8, !tbaa !48
  store ptr %1, ptr %6, align 8, !tbaa !54
  store ptr %2, ptr %7, align 8, !tbaa !54
  store ptr %3, ptr %8, align 8, !tbaa !54
  %10 = load ptr, ptr %6, align 8, !tbaa !54
  %11 = call zeroext i1 @ggml_is_scalar(ptr noundef %10)
  br i1 %11, label %13, label %12

12:                                               ; preds = %4
  call void (ptr, i32, ptr, ...) @ggml_abort(ptr noundef @.str.12, i32 noundef 5096, ptr noundef @.str.13, ptr noundef @.str.141) #18
  unreachable

13:                                               ; preds = %4
  %14 = load ptr, ptr %7, align 8, !tbaa !54
  %15 = load ptr, ptr %8, align 8, !tbaa !54
  %16 = call zeroext i1 @ggml_are_same_shape(ptr noundef %14, ptr noundef %15)
  br i1 %16, label %18, label %17

17:                                               ; preds = %13
  call void (ptr, i32, ptr, ...) @ggml_abort(ptr noundef @.str.12, i32 noundef 5097, ptr noundef @.str.13, ptr noundef @.str.142) #18
  unreachable

18:                                               ; preds = %13
  call void @llvm.lifetime.start.p0(i64 8, ptr %9) #14
  %19 = load ptr, ptr %5, align 8, !tbaa !48
  %20 = load ptr, ptr %7, align 8, !tbaa !54
  %21 = call ptr @ggml_dup_tensor(ptr noundef %19, ptr noundef %20)
  store ptr %21, ptr %9, align 8, !tbaa !54
  %22 = load ptr, ptr %9, align 8, !tbaa !54
  %23 = getelementptr inbounds nuw %struct.ggml_tensor, ptr %22, i32 0, i32 4
  store i32 81, ptr %23, align 8, !tbaa !68
  %24 = load ptr, ptr %6, align 8, !tbaa !54
  %25 = load ptr, ptr %9, align 8, !tbaa !54
  %26 = getelementptr inbounds nuw %struct.ggml_tensor, ptr %25, i32 0, i32 7
  %27 = getelementptr inbounds [10 x ptr], ptr %26, i64 0, i64 0
  store ptr %24, ptr %27, align 8, !tbaa !54
  %28 = load ptr, ptr %7, align 8, !tbaa !54
  %29 = load ptr, ptr %9, align 8, !tbaa !54
  %30 = getelementptr inbounds nuw %struct.ggml_tensor, ptr %29, i32 0, i32 7
  %31 = getelementptr inbounds [10 x ptr], ptr %30, i64 0, i64 1
  store ptr %28, ptr %31, align 8, !tbaa !54
  %32 = load ptr, ptr %8, align 8, !tbaa !54
  %33 = load ptr, ptr %9, align 8, !tbaa !54
  %34 = getelementptr inbounds nuw %struct.ggml_tensor, ptr %33, i32 0, i32 7
  %35 = getelementptr inbounds [10 x ptr], ptr %34, i64 0, i64 2
  store ptr %32, ptr %35, align 8, !tbaa !54
  %36 = load ptr, ptr %9, align 8, !tbaa !54
  call void @llvm.lifetime.end.p0(i64 8, ptr %9) #14
  ret ptr %36
}