; Function Attrs: nounwind uwtable
define noundef ptr @ggml_cross_entropy_loss_back(ptr noundef captures(none) %0, ptr noundef %1, ptr noundef %2, ptr noundef %3) local_unnamed_addr #4 {
  %5 = getelementptr inbounds nuw i8, ptr %1, i64 16
  %6 = load i64, ptr %5, align 8, !tbaa !39
  %7 = icmp eq i64 %6, 1
  br i1 %7, label %8, label %ggml_is_scalar.exit.thread

8:                                                ; preds = %4
  %9 = getelementptr inbounds nuw i8, ptr %1, i64 24
  %10 = load i64, ptr %9, align 8, !tbaa !39
  %11 = icmp eq i64 %10, 1
  br i1 %11, label %12, label %ggml_is_scalar.exit.thread

12:                                               ; preds = %8
  %13 = getelementptr inbounds nuw i8, ptr %1, i64 32
  %14 = load i64, ptr %13, align 8, !tbaa !39
  %15 = icmp eq i64 %14, 1
  br i1 %15, label %ggml_is_scalar.exit, label %ggml_is_scalar.exit.thread

ggml_is_scalar.exit:                              ; preds = %12
  %16 = getelementptr inbounds nuw i8, ptr %1, i64 40
  %17 = load i64, ptr %16, align 8, !tbaa !39
  %18 = icmp eq i64 %17, 1
  br i1 %18, label %19, label %ggml_is_scalar.exit.thread

ggml_is_scalar.exit.thread:                       ; preds = %4, %8, %12, %ggml_is_scalar.exit
  tail call void (ptr, i32, ptr, ...) @ggml_abort(ptr noundef nonnull @.str.12, i32 noundef 5096, ptr noundef nonnull @.str.13, ptr noundef nonnull @.str.141) #47
  unreachable

19:                                               ; preds = %ggml_is_scalar.exit
  %20 = getelementptr inbounds nuw i8, ptr %2, i64 16
  %21 = load i64, ptr %20, align 8, !tbaa !39
  %22 = getelementptr inbounds nuw i8, ptr %3, i64 16
  %23 = load i64, ptr %22, align 8, !tbaa !39
  %24 = icmp eq i64 %21, %23
  br i1 %24, label %25, label %ggml_are_same_shape.exit.thread

25:                                               ; preds = %19
  %26 = getelementptr inbounds nuw i8, ptr %2, i64 24
  %27 = load i64, ptr %26, align 8, !tbaa !39
  %28 = getelementptr inbounds nuw i8, ptr %3, i64 24
  %29 = load i64, ptr %28, align 8, !tbaa !39
  %30 = icmp eq i64 %27, %29
  br i1 %30, label %31, label %ggml_are_same_shape.exit.thread

31:                                               ; preds = %25
  %32 = getelementptr inbounds nuw i8, ptr %2, i64 32
  %33 = load i64, ptr %32, align 8, !tbaa !39
  %34 = getelementptr inbounds nuw i8, ptr %3, i64 32
  %35 = load i64, ptr %34, align 8, !tbaa !39
  %36 = icmp eq i64 %33, %35
  br i1 %36, label %ggml_are_same_shape.exit, label %ggml_are_same_shape.exit.thread

ggml_are_same_shape.exit:                         ; preds = %31
  %37 = getelementptr inbounds nuw i8, ptr %2, i64 40
  %38 = load i64, ptr %37, align 8, !tbaa !39
  %39 = getelementptr inbounds nuw i8, ptr %3, i64 40
  %40 = load i64, ptr %39, align 8, !tbaa !39
  %41 = icmp eq i64 %38, %40
  br i1 %41, label %42, label %ggml_are_same_shape.exit.thread

ggml_are_same_shape.exit.thread:                  ; preds = %19, %25, %31, %ggml_are_same_shape.exit
  tail call void (ptr, i32, ptr, ...) @ggml_abort(ptr noundef nonnull @.str.12, i32 noundef 5097, ptr noundef nonnull @.str.13, ptr noundef nonnull @.str.142) #47
  unreachable

42:                                               ; preds = %ggml_are_same_shape.exit
  %43 = load i32, ptr %2, align 8, !tbaa !40
  %44 = tail call fastcc noundef ptr @ggml_new_tensor_impl(ptr noundef %0, i32 noundef %43, i32 noundef 4, ptr noundef nonnull readonly %20, ptr noundef null, i64 noundef 0)
  %45 = getelementptr inbounds nuw i8, ptr %44, i64 80
  store i32 81, ptr %45, align 8, !tbaa !55
  %46 = getelementptr inbounds nuw i8, ptr %44, i64 152
  store ptr %1, ptr %46, align 8, !tbaa !81
  %47 = getelementptr inbounds nuw i8, ptr %44, i64 160
  store ptr %2, ptr %47, align 8, !tbaa !81
  %48 = getelementptr inbounds nuw i8, ptr %44, i64 168
  store ptr %3, ptr %48, align 8, !tbaa !81
  ret ptr %44
}